target datalayout = "e-m:e-p270:32:32-p271:32:32-p272:64:64-i64:64-i128:128-f80:128-n8:16:32:64-S128"
target triple = "x86_64-pc-linux-gnu"

; Function Attrs: nounwind uwtable
define internal i32 @contains_cc(ptr noundef %0, i64 noundef %1, i32 noundef %2, i32 noundef %3) #0 {
  %5 = alloca i32, align 4
  %6 = alloca ptr, align 8
  %7 = alloca i64, align 8
  %8 = alloca i32, align 4
  %9 = alloca i32, align 4
  %10 = alloca ptr, align 8
  %11 = alloca ptr, align 8
  %12 = alloca i32, align 4
  store ptr %0, ptr %6, align 8
  store i64 %1, ptr %7, align 8
  store i32 %2, ptr %8, align 4
  store i32 %3, ptr %9, align 4
  store i32 0, ptr %12, align 4
  %13 = load ptr, ptr %6, align 8
  %14 = icmp eq ptr %13, null
  br i1 %14, label %18, label %15

15:                                               ; preds = %4
  %16 = load i64, ptr %7, align 8
  %17 = icmp ult i64 %16, 13
  br i1 %17, label %18, label %19

18:                                               ; preds = %15, %4
  store i32 0, ptr %5, align 4
  br label %93

19:                                               ; preds = %15
  %20 = load ptr, ptr %6, align 8
  %21 = load i64, ptr %7, align 8
  %22 = getelementptr inbounds i8, ptr %20, i64 %21
  store ptr %22, ptr %11, align 8
  %23 = load ptr, ptr %6, align 8
  store ptr %23, ptr %10, align 8
  br label %24

24:                                               ; preds = %88, %19
  %25 = load ptr, ptr %10, align 8
  %26 = load ptr, ptr %11, align 8
  %27 = icmp ult ptr %25, %26
  br i1 %27, label %28, label %91

28:                                               ; preds = %24
  %29 = call ptr @__ctype_b_loc() #5
  %30 = load ptr, ptr %29, align 8
  %31 = load ptr, ptr %10, align 8
  %32 = load i8, ptr %31, align 1
  %33 = zext i8 %32 to i32
  %34 = sext i32 %33 to i64
  %35 = getelementptr inbounds i16, ptr %30, i64 %34
  %36 = load i16, ptr %35, align 2
  %37 = zext i16 %36 to i32
  %38 = and i32 %37, 2048
  %39 = icmp ne i32 %38, 0
  br i1 %39, label %40, label %88

40:                                               ; preds = %28
  %41 = load ptr, ptr %10, align 8
  %42 = load ptr, ptr %6, align 8
  %43 = icmp eq ptr %41, %42
  br i1 %43, label %57, label %44

44:                                               ; preds = %40
  %45 = call ptr @__ctype_b_loc() #5
  %46 = load ptr, ptr %45, align 8
  %47 = load ptr, ptr %10, align 8
  %48 = getelementptr inbounds i8, ptr %47, i64 -1
  %49 = load i8, ptr %48, align 1
  %50 = zext i8 %49 to i32
  %51 = sext i32 %50 to i64
  %52 = getelementptr inbounds i16, ptr %46, i64 %51
  %53 = load i16, ptr %52, align 2
  %54 = zext i16 %53 to i32
  %55 = and i32 %54, 2048
  %56 = icmp ne i32 %55, 0
  br i1 %56, label %87, label %57

57:                                               ; preds = %44, %40
  %58 = load ptr, ptr %10, align 8
  %59 = load i64, ptr %7, align 8
  %60 = load ptr, ptr %10, align 8
  %61 = load ptr, ptr %6, align 8
  %62 = ptrtoint ptr %60 to i64
  %63 = ptrtoint ptr %61 to i64
  %64 = sub i64 %62, %63
  %65 = sub i64 %59, %64
  %66 = load i32, ptr %9, align 4
  %67 = call i32 @dlp_is_valid_cc(ptr noundef %58, i64 noundef %65, i32 noundef %66)
  %68 = icmp eq i32 %67, 1
  br i1 %68, label %69, label %87

69:                                               ; preds = %57
  %70 = load i32, ptr %8, align 4
  %71 = icmp eq i32 %70, 0
  br i1 %71, label %72, label %73

72:                                               ; preds = %69
  store i32 1, ptr %5, align 4
  br label %93

73:                                               ; preds = %69
  %74 = load i32, ptr %12, align 4
  %75 = add nsw i32 %74, 1
  store i32 %75, ptr %12, align 4
  %76 = load i64, ptr %7, align 8
  %77 = icmp ugt i64 %76, 15
  br i1 %77, label %78, label %79

78:                                               ; preds = %73
  br label %82

79:                                               ; preds = %73
  %80 = load i64, ptr %7, align 8
  %81 = sub i64 %80, 1
  br label %82

82:                                               ; preds = %79, %78
  %83 = phi i64 [ 15, %78 ], [ %81, %79 ]
  %84 = load ptr, ptr %10, align 8
  %85 = getelementptr inbounds i8, ptr %84, i64 %83
  store ptr %85, ptr %10, align 8
  br label %86

86:                                               ; preds = %82
  br label %87

87:                                               ; preds = %86, %57, %44
  br label %88

88:                                               ; preds = %87, %28
  %89 = load ptr, ptr %10, align 8
  %90 = getelementptr inbounds i8, ptr %89, i32 1
  store ptr %90, ptr %10, align 8
  br label %24

91:                                               ; preds = %24
  %92 = load i32, ptr %12, align 4
  store i32 %92, ptr %5, align 4
  br label %93

93:                                               ; preds = %91, %72, %18
  %94 = load i32, ptr %5, align 4
  ret i32 %94
}

; Function Attrs: nounwind uwtable
define i32 @dlp_get_cc_count(ptr noundef %0, i64 noundef %1, i32 noundef %2) #0 {
  %4 = alloca ptr, align 8
  %5 = alloca i64, align 8
  %6 = alloca i32, align 4
  store ptr %0, ptr %4, align 8
  store i64 %1, ptr %5, align 8
  store i32 %2, ptr %6, align 4
  %7 = load ptr, ptr %4, align 8
  %8 = load i64, ptr %5, align 8
  %9 = load i32, ptr %6, align 4
  %10 = call i32 @contains_cc(ptr noundef %7, i64 noundef %8, i32 noundef 1, i32 noundef %9)
  ret i32 %10
}