; Function Attrs: nounwind uwtable
define i32 @dlp_get_cc_count(ptr noundef %0, i64 noundef %1, i32 noundef %2) local_unnamed_addr #0 {
  %4 = icmp eq ptr %0, null
  %5 = icmp ult i64 %1, 13
  %or.cond.i = or i1 %4, %5
  br i1 %or.cond.i, label %contains_cc.exit, label %6

6:                                                ; preds = %3
  %7 = getelementptr inbounds i8, ptr %0, i64 %1
  %8 = icmp sgt i64 %1, 0
  br i1 %8, label %.lr.ph.i, label %contains_cc.exit

.lr.ph.i:                                         ; preds = %6
  %9 = tail call ptr @__ctype_b_loc() #9
  %10 = ptrtoint ptr %0 to i64
  %.neg.i = add i64 %1, %10
  %11 = tail call i64 @llvm.umin.i64(i64 %1, i64 16)
  br label %.lr.ph.split.i

.lr.ph.split.i:                                   ; preds = %35, %.lr.ph.i
  %.033.i = phi i32 [ %.1.i, %35 ], [ 0, %.lr.ph.i ]
  %.02532.i = phi ptr [ %36, %35 ], [ %0, %.lr.ph.i ]
  %12 = load ptr, ptr %9, align 8
  %13 = load i8, ptr %.02532.i, align 1
  %14 = zext i8 %13 to i64
  %15 = getelementptr inbounds nuw i16, ptr %12, i64 %14
  %16 = load i16, ptr %15, align 2
  %17 = and i16 %16, 2048
  %.not.i = icmp eq i16 %17, 0
  br i1 %.not.i, label %35, label %18

18:                                               ; preds = %.lr.ph.split.i
  %19 = icmp eq ptr %.02532.i, %0
  br i1 %19, label %27, label %20

20:                                               ; preds = %18
  %21 = getelementptr inbounds i8, ptr %.02532.i, i64 -1
  %22 = load i8, ptr %21, align 1
  %23 = zext i8 %22 to i64
  %24 = getelementptr inbounds nuw i16, ptr %12, i64 %23
  %25 = load i16, ptr %24, align 2
  %26 = and i16 %25, 2048
  %.not29.i = icmp eq i16 %26, 0
  br i1 %.not29.i, label %27, label %35

27:                                               ; preds = %20, %18
  %28 = ptrtoint ptr %.02532.i to i64
  %29 = sub i64 %.neg.i, %28
  %30 = tail call i32 @dlp_is_valid_cc(ptr noundef nonnull %.02532.i, i64 noundef %29, i32 noundef %2)
  %.not30.i = icmp eq i32 %30, 0
  br i1 %.not30.i, label %35, label %31

31:                                               ; preds = %27
  %32 = add nsw i32 %.033.i, 1
  %33 = getelementptr i8, ptr %.02532.i, i64 %11
  %34 = getelementptr i8, ptr %33, i64 -1
  br label %35

35:                                               ; preds = %31, %27, %20, %.lr.ph.split.i
  %.126.i = phi ptr [ %34, %31 ], [ %.02532.i, %27 ], [ %.02532.i, %20 ], [ %.02532.i, %.lr.ph.split.i ]
  %.1.i = phi i32 [ %32, %31 ], [ %.033.i, %27 ], [ %.033.i, %20 ], [ %.033.i, %.lr.ph.split.i ]
  %36 = getelementptr inbounds nuw i8, ptr %.126.i, i64 1
  %37 = icmp ult ptr %36, %7
  br i1 %37, label %.lr.ph.split.i, label %contains_cc.exit

contains_cc.exit:                                 ; preds = %35, %3, %6
  %.024.i = phi i32 [ 0, %3 ], [ 0, %6 ], [ %.1.i, %35 ]
  ret i32 %.024.i
}